target datalayout = "e-m:e-p270:32:32-p271:32:32-p272:64:64-i64:64-i128:128-f80:128-n8:16:32:64-S128"
target triple = "x86_64-pc-linux-gnu"

%struct.AVFilterInOut = type { ptr, ptr, i32, ptr }

; Function Attrs: nounwind uwtable
define void @avfilter_inout_free(ptr noundef %0) #0 {
  %2 = alloca ptr, align 8
  %3 = alloca ptr, align 8
  store ptr %0, ptr %2, align 8, !tbaa !4
  br label %4

4:                                                ; preds = %8, %1
  %5 = load ptr, ptr %2, align 8, !tbaa !4
  %6 = load ptr, ptr %5, align 8, !tbaa !10
  %7 = icmp ne ptr %6, null
  br i1 %7, label %8, label %19

8:                                                ; preds = %4
  call void @llvm.lifetime.start.p0(i64 8, ptr %3) #7
  %9 = load ptr, ptr %2, align 8, !tbaa !4
  %10 = load ptr, ptr %9, align 8, !tbaa !10
  %11 = getelementptr inbounds nuw %struct.AVFilterInOut, ptr %10, i32 0, i32 3
  %12 = load ptr, ptr %11, align 8, !tbaa !12
  store ptr %12, ptr %3, align 8, !tbaa !10
  %13 = load ptr, ptr %2, align 8, !tbaa !4
  %14 = load ptr, ptr %13, align 8, !tbaa !10
  %15 = getelementptr inbounds nuw %struct.AVFilterInOut, ptr %14, i32 0, i32 0
  call void @av_freep(ptr noundef %15)
  %16 = load ptr, ptr %2, align 8, !tbaa !4
  call void @av_freep(ptr noundef %16)
  %17 = load ptr, ptr %3, align 8, !tbaa !10
  %18 = load ptr, ptr %2, align 8, !tbaa !4
  store ptr %17, ptr %18, align 8, !tbaa !10
  call void @llvm.lifetime.end.p0(i64 8, ptr %3) #7
  br label %4, !llvm.loop !17

19:                                               ; preds = %4
  ret void
}