; Function Attrs: nounwind uwtable
define void @avfilter_inout_free(ptr noundef %0) local_unnamed_addr #0 {
  %.pr = load ptr, ptr %0, align 8, !tbaa !4
  %.not6 = icmp eq ptr %.pr, null
  br i1 %.not6, label %._crit_edge, label %.lr.ph

.lr.ph:                                           ; preds = %1, %.lr.ph
  %2 = phi ptr [ %4, %.lr.ph ], [ %.pr, %1 ]
  %3 = getelementptr inbounds nuw i8, ptr %2, i64 24
  %4 = load ptr, ptr %3, align 8, !tbaa !9
  tail call void @av_freep(ptr noundef nonnull %2) #7
  tail call void @av_freep(ptr noundef nonnull %0) #7
  store ptr %4, ptr %0, align 8, !tbaa !4
  %.not = icmp eq ptr %4, null
  br i1 %.not, label %._crit_edge, label %.lr.ph, !llvm.loop !14

._crit_edge:                                      ; preds = %.lr.ph, %1
  ret void
}